; Function Attrs: nounwind uwtable
define dso_local noundef ptr @php_XML_ParserCreate(ptr noundef readnone captures(none) %0) local_unnamed_addr #0 {
  %2 = tail call noalias ptr @_emalloc_128() #11
  tail call void @llvm.memset.p0.i64(ptr noundef nonnull align 8 dereferenceable(120) %2, i8 0, i64 120, i1 false)
  %3 = tail call ptr @xmlCreatePushParserCtxt(ptr noundef nonnull @php_xml_compat_handlers, ptr noundef nonnull %2, ptr noundef null, i32 noundef 0, ptr noundef null) #11
  %4 = getelementptr inbounds nuw i8, ptr %2, i64 24
  store ptr %3, ptr %4, align 8, !tbaa !4
  %5 = icmp eq ptr %3, null
  br i1 %5, label %6, label %7

6:                                                ; preds = %1
  tail call void @_efree(ptr noundef nonnull %2) #11
  br label %php_XML_ParserCreate_MM.exit

7:                                                ; preds = %1
  %8 = getelementptr inbounds nuw i8, ptr %3, i64 432
  store i32 0, ptr %8, align 8, !tbaa !12
  %9 = getelementptr inbounds nuw i8, ptr %3, i64 156
  store i32 0, ptr %9, align 4, !tbaa !34
  %10 = getelementptr inbounds nuw i8, ptr %3, i64 420
  store i32 0, ptr %10, align 4, !tbaa !35
  %11 = getelementptr inbounds nuw i8, ptr %3, i64 28
  store i32 0, ptr %11, align 4, !tbaa !36
  %12 = getelementptr inbounds nuw i8, ptr %3, i64 436
  store i32 0, ptr %12, align 4, !tbaa !37
  %13 = getelementptr inbounds nuw i8, ptr %3, i64 328
  store i32 1, ptr %13, align 8, !tbaa !38
  %14 = getelementptr inbounds nuw i8, ptr %3, i64 564
  store i32 0, ptr %14, align 4, !tbaa !39
  %15 = tail call i32 @xmlCtxtUseOptions(ptr noundef nonnull %3, i32 noundef 1048578) #11
  %16 = load ptr, ptr %4, align 8, !tbaa !4
  %17 = getelementptr inbounds nuw i8, ptr %16, i64 24
  store i32 0, ptr %17, align 8, !tbaa !40
  %18 = load ptr, ptr %16, align 8, !tbaa !41
  %19 = getelementptr inbounds nuw i8, ptr %18, i64 216
  store i32 1, ptr %19, align 8, !tbaa !42
  br label %php_XML_ParserCreate_MM.exit

php_XML_ParserCreate_MM.exit:                     ; preds = %6, %7
  %.0.i = phi ptr [ null, %6 ], [ %2, %7 ]
  ret ptr %.0.i
}